; Function Attrs: mustprogress uwtable
define hidden void @_ZN3smt8qi_queue5resetEv(ptr noundef nonnull readonly align 8 captures(none) dereferenceable(1048) %0) local_unnamed_addr #4 align 2 {
  %2 = getelementptr inbounds nuw i8, ptr %0, i64 1000
  %3 = load ptr, ptr %2, align 8, !tbaa !567
  %.not.i = icmp eq ptr %3, null
  br i1 %.not.i, label %_ZN6vectorIN3smt8qi_queue5entryELb0EjE5resetEv.exit, label %4

4:                                                ; preds = %1
  %5 = getelementptr inbounds i8, ptr %3, i64 -4
  store i32 0, ptr %5, align 4, !tbaa !555
  br label %_ZN6vectorIN3smt8qi_queue5entryELb0EjE5resetEv.exit

_ZN6vectorIN3smt8qi_queue5entryELb0EjE5resetEv.exit: ; preds = %1, %4
  %6 = getelementptr inbounds nuw i8, ptr %0, i64 1008
  %7 = load ptr, ptr %6, align 8, !tbaa !567
  %.not.i1 = icmp eq ptr %7, null
  br i1 %.not.i1, label %_ZN6vectorIN3smt8qi_queue5entryELb0EjE5resetEv.exit2, label %8

8:                                                ; preds = %_ZN6vectorIN3smt8qi_queue5entryELb0EjE5resetEv.exit
  %9 = getelementptr inbounds i8, ptr %7, i64 -4
  store i32 0, ptr %9, align 4, !tbaa !555
  br label %_ZN6vectorIN3smt8qi_queue5entryELb0EjE5resetEv.exit2

_ZN6vectorIN3smt8qi_queue5entryELb0EjE5resetEv.exit2: ; preds = %_ZN6vectorIN3smt8qi_queue5entryELb0EjE5resetEv.exit, %8
  %10 = getelementptr inbounds nuw i8, ptr %0, i64 1016
  %11 = getelementptr inbounds nuw i8, ptr %0, i64 1024
  %12 = load ptr, ptr %11, align 8, !tbaa !561
  %13 = icmp eq ptr %12, null
  br i1 %13, label %_ZN15ref_vector_coreI4expr19ref_manager_wrapperIS0_11ast_managerEE5resetEv.exit, label %_ZNK6vectorIP4exprLb0EjE4sizeEv.exit.i

_ZNK6vectorIP4exprLb0EjE4sizeEv.exit.i:           ; preds = %_ZN6vectorIN3smt8qi_queue5entryELb0EjE5resetEv.exit2
  %14 = getelementptr inbounds i8, ptr %12, i64 -4
  %15 = load i32, ptr %14, align 4, !tbaa !555
  %16 = zext i32 %15 to i64
  %17 = getelementptr inbounds nuw ptr, ptr %12, i64 %16
  %.not.i3 = icmp eq i32 %15, 0
  br i1 %.not.i3, label %_ZN15ref_vector_coreI4expr19ref_manager_wrapperIS0_11ast_managerEE13dec_range_refEPKPS0_S7_.exit.thread4.i, label %.lr.ph.i.i

.lr.ph.i.i:                                       ; preds = %_ZNK6vectorIP4exprLb0EjE4sizeEv.exit.i, %_ZN15ref_vector_coreI4expr19ref_manager_wrapperIS0_11ast_managerEE7dec_refEPS0_.exit.i.i
  %.06.i.i = phi ptr [ %26, %_ZN15ref_vector_coreI4expr19ref_manager_wrapperIS0_11ast_managerEE7dec_refEPS0_.exit.i.i ], [ %12, %_ZNK6vectorIP4exprLb0EjE4sizeEv.exit.i ]
  %18 = load ptr, ptr %.06.i.i, align 8, !tbaa !562
  %19 = load ptr, ptr %10, align 8, !tbaa !563
  %.not.i.i.i.i.i = icmp eq ptr %18, null
  br i1 %.not.i.i.i.i.i, label %_ZN15ref_vector_coreI4expr19ref_manager_wrapperIS0_11ast_managerEE7dec_refEPS0_.exit.i.i, label %20

20:                                               ; preds = %.lr.ph.i.i
  %21 = getelementptr inbounds nuw i8, ptr %18, i64 8
  %22 = load i32, ptr %21, align 4, !tbaa !564
  %23 = add i32 %22, -1
  store i32 %23, ptr %21, align 4, !tbaa !564
  %24 = icmp eq i32 %23, 0
  br i1 %24, label %25, label %_ZN15ref_vector_coreI4expr19ref_manager_wrapperIS0_11ast_managerEE7dec_refEPS0_.exit.i.i

25:                                               ; preds = %20
  tail call void @_ZN11ast_manager11delete_nodeEP3ast(ptr noundef nonnull align 8 dereferenceable(976) %19, ptr noundef nonnull %18)
  br label %_ZN15ref_vector_coreI4expr19ref_manager_wrapperIS0_11ast_managerEE7dec_refEPS0_.exit.i.i

_ZN15ref_vector_coreI4expr19ref_manager_wrapperIS0_11ast_managerEE7dec_refEPS0_.exit.i.i: ; preds = %25, %20, %.lr.ph.i.i
  %26 = getelementptr inbounds nuw i8, ptr %.06.i.i, i64 8
  %27 = icmp ult ptr %26, %17
  br i1 %27, label %.lr.ph.i.i, label %_ZN15ref_vector_coreI4expr19ref_manager_wrapperIS0_11ast_managerEE13dec_range_refEPKPS0_S7_.exit.i, !llvm.loop !566

_ZN15ref_vector_coreI4expr19ref_manager_wrapperIS0_11ast_managerEE13dec_range_refEPKPS0_S7_.exit.i: ; preds = %_ZN15ref_vector_coreI4expr19ref_manager_wrapperIS0_11ast_managerEE7dec_refEPS0_.exit.i.i
  %.pre.i = load ptr, ptr %11, align 8, !tbaa !561
  %.not.i.i = icmp eq ptr %.pre.i, null
  br i1 %.not.i.i, label %_ZN15ref_vector_coreI4expr19ref_manager_wrapperIS0_11ast_managerEE5resetEv.exit, label %_ZN15ref_vector_coreI4expr19ref_manager_wrapperIS0_11ast_managerEE13dec_range_refEPKPS0_S7_.exit.thread4.i

_ZN15ref_vector_coreI4expr19ref_manager_wrapperIS0_11ast_managerEE13dec_range_refEPKPS0_S7_.exit.thread4.i: ; preds = %_ZN15ref_vector_coreI4expr19ref_manager_wrapperIS0_11ast_managerEE13dec_range_refEPKPS0_S7_.exit.i, %_ZNK6vectorIP4exprLb0EjE4sizeEv.exit.i
  %28 = phi ptr [ %.pre.i, %_ZN15ref_vector_coreI4expr19ref_manager_wrapperIS0_11ast_managerEE13dec_range_refEPKPS0_S7_.exit.i ], [ %12, %_ZNK6vectorIP4exprLb0EjE4sizeEv.exit.i ]
  %29 = getelementptr inbounds i8, ptr %28, i64 -4
  store i32 0, ptr %29, align 4, !tbaa !555
  br label %_ZN15ref_vector_coreI4expr19ref_manager_wrapperIS0_11ast_managerEE5resetEv.exit

_ZN15ref_vector_coreI4expr19ref_manager_wrapperIS0_11ast_managerEE5resetEv.exit: ; preds = %_ZN6vectorIN3smt8qi_queue5entryELb0EjE5resetEv.exit2, %_ZN15ref_vector_coreI4expr19ref_manager_wrapperIS0_11ast_managerEE13dec_range_refEPKPS0_S7_.exit.i, %_ZN15ref_vector_coreI4expr19ref_manager_wrapperIS0_11ast_managerEE13dec_range_refEPKPS0_S7_.exit.thread4.i
  %30 = getelementptr inbounds nuw i8, ptr %0, i64 1040
  %31 = load ptr, ptr %30, align 8, !tbaa !559
  %.not.i4 = icmp eq ptr %31, null
  br i1 %.not.i4, label %_ZN6vectorIN3smt8qi_queue5scopeELb0EjE5resetEv.exit, label %32

32:                                               ; preds = %_ZN15ref_vector_coreI4expr19ref_manager_wrapperIS0_11ast_managerEE5resetEv.exit
  %33 = getelementptr inbounds i8, ptr %31, i64 -4
  store i32 0, ptr %33, align 4, !tbaa !555
  br label %_ZN6vectorIN3smt8qi_queue5scopeELb0EjE5resetEv.exit

_ZN6vectorIN3smt8qi_queue5scopeELb0EjE5resetEv.exit: ; preds = %_ZN15ref_vector_coreI4expr19ref_manager_wrapperIS0_11ast_managerEE5resetEv.exit, %32
  ret void
}